; ModuleID = 'bench/linux/original/intel_dkl_phy.ll'
source_filename = "bench/linux/original/intel_dkl_phy.ll"
target datalayout = "e-m:e-p270:32:32-p271:32:32-p272:64:64-i64:64-i128:128-f80:128-n8:16:32:64-S128"
target triple = "x86_64-unknown-linux-gnu"

@.str = private unnamed_addr constant [10 x i8] c"%s %s: %s\00", align 1
@.str.1 = private unnamed_addr constant [65 x i8] c"drm_WARN_ON(tc_port < TC_PORT_1 || tc_port >= I915_MAX_TC_PORTS)\00", align 1
@.str.2 = private unnamed_addr constant [45 x i8] c"drivers/gpu/drm/i915/display/intel_dkl_phy.c\00", align 1

; Function Attrs: fn_ret_thunk_extern mustprogress nofree norecurse nosync nounwind null_pointer_is_valid willreturn memory(argmem: write)
define dso_local void @intel_dkl_phy_init(ptr nocapture noundef writeonly %0) local_unnamed_addr #0 align 16 {
  %2 = getelementptr inbounds i8, ptr %0, i64 2280
  store i32 0, ptr %2, align 8
  ret void
}

; Function Attrs: fn_ret_thunk_extern nounwind null_pointer_is_valid
define dso_local i32 @intel_dkl_phy_read(ptr noundef %0, i32 %1) local_unnamed_addr #1 align 16 {
  %3 = getelementptr inbounds i8, ptr %0, i64 2280
  tail call void @_raw_spin_lock(ptr noundef %3) #3
  %4 = and i32 %1, 16777215
  %5 = add nsw i32 %4, -1499136
  %6 = icmp ult i32 %5, -28671
  br i1 %6, label %7, label %dkl_phy_set_hip_idx.exit, !prof !5

7:                                                ; preds = %2
  tail call void asm sideeffect "842: nop\0A\09.pushsection .discard.instr_begin\0A\09.long 842b - .\0A\09.popsection\0A\09", "i,~{dirflag},~{fpsr},~{flags}"(i32 842) #3, !srcloc !6
  %8 = getelementptr inbounds i8, ptr %0, i64 8
  %9 = load ptr, ptr %8, align 8
  %10 = tail call ptr @dev_driver_string(ptr noundef %9) #3
  %11 = load ptr, ptr %8, align 8
  %12 = getelementptr inbounds i8, ptr %11, i64 80
  %13 = load ptr, ptr %12, align 8
  %14 = icmp eq ptr %13, null
  br i1 %14, label %15, label %17

15:                                               ; preds = %7
  %16 = load ptr, ptr %11, align 8
  br label %17

17:                                               ; preds = %15, %7
  %18 = phi ptr [ %16, %15 ], [ %13, %7 ]
  tail call void (ptr, ...) @__warn_printk(ptr noundef nonnull @.str, ptr noundef %10, ptr noundef %18, ptr noundef nonnull @.str.1) #3
  tail call void asm sideeffect "843: nop\0A\09.pushsection .discard.instr_begin\0A\09.long 843b - .\0A\09.popsection\0A\09", "i,~{dirflag},~{fpsr},~{flags}"(i32 843) #3, !srcloc !7
  tail call void asm sideeffect "1:\09.byte 0x0f, 0x0b\0A.pushsection __bug_table,\22aw\22\0A2:\09.long 1b - .\09# bug_entry::bug_addr\0A\09.long ${0:c} - .\09# bug_entry::file\0A\09.word ${1:c}\09# bug_entry::line\0A\09.word ${2:c}\09# bug_entry::flags\0A\09.org 2b+${3:c}\0A.popsection\0A998:\0A\09.pushsection .discard.reachable\0A\09.long 998b\0A\09.popsection\0A\09", "i,i,i,i,~{dirflag},~{fpsr},~{flags}"(ptr nonnull @.str.2, i32 28, i32 2313, i64 12) #3, !srcloc !8
  tail call void asm sideeffect "844: nop\0A\09.pushsection .discard.instr_end\0A\09.long 844b - .\0A\09.popsection\0A\09", "i,~{dirflag},~{fpsr},~{flags}"(i32 844) #3, !srcloc !9
  tail call void asm sideeffect "845: nop\0A\09.pushsection .discard.instr_end\0A\09.long 845b - .\0A\09.popsection\0A\09", "i,~{dirflag},~{fpsr},~{flags}"(i32 845) #3, !srcloc !10
  br label %dkl_phy_set_hip_idx.exit

dkl_phy_set_hip_idx.exit:                         ; preds = %2, %17
  %19 = add nsw i32 %4, -1474560
  %20 = sdiv i32 %19, 4096
  %21 = icmp ult i32 %4, 1490944
  %22 = select i1 %21, i32 1052832, i32 1052836
  %23 = lshr i32 %1, 24
  %24 = and i32 %23, 15
  %.lhs.trunc.i = trunc i32 %20 to i16
  %25 = srem i16 %.lhs.trunc.i, 4
  %.sext.i = sext i16 %25 to i32
  %26 = shl nsw i32 %.sext.i, 3
  %27 = shl nuw nsw i32 %24, %26
  %28 = getelementptr inbounds i8, ptr %0, i64 7368
  %29 = getelementptr inbounds i8, ptr %0, i64 7544
  %30 = load ptr, ptr %29, align 8
  tail call void %30(ptr noundef %28, i32 %22, i32 noundef %27, i1 noundef zeroext true) #3
  %31 = getelementptr inbounds i8, ptr %0, i64 7512
  %32 = load ptr, ptr %31, align 8
  %33 = tail call i32 %32(ptr noundef %28, i32 %4, i1 noundef zeroext true) #3
  tail call void @_raw_spin_unlock(ptr noundef %3) #3
  ret i32 %33
}

; Function Attrs: fn_ret_thunk_extern nounwind null_pointer_is_valid
define dso_local void @intel_dkl_phy_write(ptr noundef %0, i32 %1, i32 noundef %2) local_unnamed_addr #1 align 16 {
  %4 = getelementptr inbounds i8, ptr %0, i64 2280
  tail call void @_raw_spin_lock(ptr noundef %4) #3
  %5 = and i32 %1, 16777215
  %6 = add nsw i32 %5, -1499136
  %7 = icmp ult i32 %6, -28671
  br i1 %7, label %8, label %dkl_phy_set_hip_idx.exit, !prof !5

8:                                                ; preds = %3
  tail call void asm sideeffect "842: nop\0A\09.pushsection .discard.instr_begin\0A\09.long 842b - .\0A\09.popsection\0A\09", "i,~{dirflag},~{fpsr},~{flags}"(i32 842) #3, !srcloc !6
  %9 = getelementptr inbounds i8, ptr %0, i64 8
  %10 = load ptr, ptr %9, align 8
  %11 = tail call ptr @dev_driver_string(ptr noundef %10) #3
  %12 = load ptr, ptr %9, align 8
  %13 = getelementptr inbounds i8, ptr %12, i64 80
  %14 = load ptr, ptr %13, align 8
  %15 = icmp eq ptr %14, null
  br i1 %15, label %16, label %18

16:                                               ; preds = %8
  %17 = load ptr, ptr %12, align 8
  br label %18

18:                                               ; preds = %16, %8
  %19 = phi ptr [ %17, %16 ], [ %14, %8 ]
  tail call void (ptr, ...) @__warn_printk(ptr noundef nonnull @.str, ptr noundef %11, ptr noundef %19, ptr noundef nonnull @.str.1) #3
  tail call void asm sideeffect "843: nop\0A\09.pushsection .discard.instr_begin\0A\09.long 843b - .\0A\09.popsection\0A\09", "i,~{dirflag},~{fpsr},~{flags}"(i32 843) #3, !srcloc !7
  tail call void asm sideeffect "1:\09.byte 0x0f, 0x0b\0A.pushsection __bug_table,\22aw\22\0A2:\09.long 1b - .\09# bug_entry::bug_addr\0A\09.long ${0:c} - .\09# bug_entry::file\0A\09.word ${1:c}\09# bug_entry::line\0A\09.word ${2:c}\09# bug_entry::flags\0A\09.org 2b+${3:c}\0A.popsection\0A998:\0A\09.pushsection .discard.reachable\0A\09.long 998b\0A\09.popsection\0A\09", "i,i,i,i,~{dirflag},~{fpsr},~{flags}"(ptr nonnull @.str.2, i32 28, i32 2313, i64 12) #3, !srcloc !8
  tail call void asm sideeffect "844: nop\0A\09.pushsection .discard.instr_end\0A\09.long 844b - .\0A\09.popsection\0A\09", "i,~{dirflag},~{fpsr},~{flags}"(i32 844) #3, !srcloc !9
  tail call void asm sideeffect "845: nop\0A\09.pushsection .discard.instr_end\0A\09.long 845b - .\0A\09.popsection\0A\09", "i,~{dirflag},~{fpsr},~{flags}"(i32 845) #3, !srcloc !10
  br label %dkl_phy_set_hip_idx.exit

dkl_phy_set_hip_idx.exit:                         ; preds = %3, %18
  %20 = add nsw i32 %5, -1474560
  %21 = sdiv i32 %20, 4096
  %22 = icmp ult i32 %5, 1490944
  %23 = select i1 %22, i32 1052832, i32 1052836
  %24 = lshr i32 %1, 24
  %25 = and i32 %24, 15
  %.lhs.trunc.i = trunc i32 %21 to i16
  %26 = srem i16 %.lhs.trunc.i, 4
  %.sext.i = sext i16 %26 to i32
  %27 = shl nsw i32 %.sext.i, 3
  %28 = shl nuw nsw i32 %25, %27
  %29 = getelementptr inbounds i8, ptr %0, i64 7368
  %30 = getelementptr inbounds i8, ptr %0, i64 7544
  %31 = load ptr, ptr %30, align 8
  tail call void %31(ptr noundef %29, i32 %23, i32 noundef %28, i1 noundef zeroext true) #3
  %32 = load ptr, ptr %30, align 8
  tail call void %32(ptr noundef %29, i32 %5, i32 noundef %2, i1 noundef zeroext true) #3
  tail call void @_raw_spin_unlock(ptr noundef %4) #3
  ret void
}

; Function Attrs: fn_ret_thunk_extern nounwind null_pointer_is_valid
define dso_local void @intel_dkl_phy_rmw(ptr noundef %0, i32 %1, i32 noundef %2, i32 noundef %3) local_unnamed_addr #1 align 16 {
  %5 = getelementptr inbounds i8, ptr %0, i64 2280
  tail call void @_raw_spin_lock(ptr noundef %5) #3
  %6 = and i32 %1, 16777215
  %7 = add nsw i32 %6, -1499136
  %8 = icmp ult i32 %7, -28671
  br i1 %8, label %9, label %dkl_phy_set_hip_idx.exit, !prof !5

9:                                                ; preds = %4
  tail call void asm sideeffect "842: nop\0A\09.pushsection .discard.instr_begin\0A\09.long 842b - .\0A\09.popsection\0A\09", "i,~{dirflag},~{fpsr},~{flags}"(i32 842) #3, !srcloc !6
  %10 = getelementptr inbounds i8, ptr %0, i64 8
  %11 = load ptr, ptr %10, align 8
  %12 = tail call ptr @dev_driver_string(ptr noundef %11) #3
  %13 = load ptr, ptr %10, align 8
  %14 = getelementptr inbounds i8, ptr %13, i64 80
  %15 = load ptr, ptr %14, align 8
  %16 = icmp eq ptr %15, null
  br i1 %16, label %17, label %19

17:                                               ; preds = %9
  %18 = load ptr, ptr %13, align 8
  br label %19

19:                                               ; preds = %17, %9
  %20 = phi ptr [ %18, %17 ], [ %15, %9 ]
  tail call void (ptr, ...) @__warn_printk(ptr noundef nonnull @.str, ptr noundef %12, ptr noundef %20, ptr noundef nonnull @.str.1) #3
  tail call void asm sideeffect "843: nop\0A\09.pushsection .discard.instr_begin\0A\09.long 843b - .\0A\09.popsection\0A\09", "i,~{dirflag},~{fpsr},~{flags}"(i32 843) #3, !srcloc !7
  tail call void asm sideeffect "1:\09.byte 0x0f, 0x0b\0A.pushsection __bug_table,\22aw\22\0A2:\09.long 1b - .\09# bug_entry::bug_addr\0A\09.long ${0:c} - .\09# bug_entry::file\0A\09.word ${1:c}\09# bug_entry::line\0A\09.word ${2:c}\09# bug_entry::flags\0A\09.org 2b+${3:c}\0A.popsection\0A998:\0A\09.pushsection .discard.reachable\0A\09.long 998b\0A\09.popsection\0A\09", "i,i,i,i,~{dirflag},~{fpsr},~{flags}"(ptr nonnull @.str.2, i32 28, i32 2313, i64 12) #3, !srcloc !8
  tail call void asm sideeffect "844: nop\0A\09.pushsection .discard.instr_end\0A\09.long 844b - .\0A\09.popsection\0A\09", "i,~{dirflag},~{fpsr},~{flags}"(i32 844) #3, !srcloc !9
  tail call void asm sideeffect "845: nop\0A\09.pushsection .discard.instr_end\0A\09.long 845b - .\0A\09.popsection\0A\09", "i,~{dirflag},~{fpsr},~{flags}"(i32 845) #3, !srcloc !10
  br label %dkl_phy_set_hip_idx.exit

dkl_phy_set_hip_idx.exit:                         ; preds = %4, %19
  %21 = add nsw i32 %6, -1474560
  %22 = sdiv i32 %21, 4096
  %23 = icmp ult i32 %6, 1490944
  %24 = select i1 %23, i32 1052832, i32 1052836
  %25 = lshr i32 %1, 24
  %26 = and i32 %25, 15
  %.lhs.trunc.i = trunc i32 %22 to i16
  %27 = srem i16 %.lhs.trunc.i, 4
  %.sext.i = sext i16 %27 to i32
  %28 = shl nsw i32 %.sext.i, 3
  %29 = shl nuw nsw i32 %26, %28
  %30 = getelementptr inbounds i8, ptr %0, i64 7368
  %31 = getelementptr inbounds i8, ptr %0, i64 7544
  %32 = load ptr, ptr %31, align 8
  tail call void %32(ptr noundef %30, i32 %24, i32 noundef %29, i1 noundef zeroext true) #3
  %33 = getelementptr inbounds i8, ptr %0, i64 7512
  %34 = load ptr, ptr %33, align 8
  %35 = tail call i32 %34(ptr noundef %30, i32 %6, i1 noundef zeroext true) #3
  %36 = xor i32 %2, -1
  %37 = and i32 %35, %36
  %38 = or i32 %37, %3
  %39 = load ptr, ptr %31, align 8
  tail call void %39(ptr noundef %30, i32 %6, i32 noundef %38, i1 noundef zeroext true) #3
  tail call void @_raw_spin_unlock(ptr noundef %5) #3
  ret void
}

; Function Attrs: fn_ret_thunk_extern nounwind null_pointer_is_valid
define dso_local void @intel_dkl_phy_posting_read(ptr noundef %0, i32 %1) local_unnamed_addr #1 align 16 {
  %3 = getelementptr inbounds i8, ptr %0, i64 2280
  tail call void @_raw_spin_lock(ptr noundef %3) #3
  %4 = and i32 %1, 16777215
  %5 = add nsw i32 %4, -1499136
  %6 = icmp ult i32 %5, -28671
  br i1 %6, label %7, label %dkl_phy_set_hip_idx.exit, !prof !5

7:                                                ; preds = %2
  tail call void asm sideeffect "842: nop\0A\09.pushsection .discard.instr_begin\0A\09.long 842b - .\0A\09.popsection\0A\09", "i,~{dirflag},~{fpsr},~{flags}"(i32 842) #3, !srcloc !6
  %8 = getelementptr inbounds i8, ptr %0, i64 8
  %9 = load ptr, ptr %8, align 8
  %10 = tail call ptr @dev_driver_string(ptr noundef %9) #3
  %11 = load ptr, ptr %8, align 8
  %12 = getelementptr inbounds i8, ptr %11, i64 80
  %13 = load ptr, ptr %12, align 8
  %14 = icmp eq ptr %13, null
  br i1 %14, label %15, label %17

15:                                               ; preds = %7
  %16 = load ptr, ptr %11, align 8
  br label %17

17:                                               ; preds = %15, %7
  %18 = phi ptr [ %16, %15 ], [ %13, %7 ]
  tail call void (ptr, ...) @__warn_printk(ptr noundef nonnull @.str, ptr noundef %10, ptr noundef %18, ptr noundef nonnull @.str.1) #3
  tail call void asm sideeffect "843: nop\0A\09.pushsection .discard.instr_begin\0A\09.long 843b - .\0A\09.popsection\0A\09", "i,~{dirflag},~{fpsr},~{flags}"(i32 843) #3, !srcloc !7
  tail call void asm sideeffect "1:\09.byte 0x0f, 0x0b\0A.pushsection __bug_table,\22aw\22\0A2:\09.long 1b - .\09# bug_entry::bug_addr\0A\09.long ${0:c} - .\09# bug_entry::file\0A\09.word ${1:c}\09# bug_entry::line\0A\09.word ${2:c}\09# bug_entry::flags\0A\09.org 2b+${3:c}\0A.popsection\0A998:\0A\09.pushsection .discard.reachable\0A\09.long 998b\0A\09.popsection\0A\09", "i,i,i,i,~{dirflag},~{fpsr},~{flags}"(ptr nonnull @.str.2, i32 28, i32 2313, i64 12) #3, !srcloc !8
  tail call void asm sideeffect "844: nop\0A\09.pushsection .discard.instr_end\0A\09.long 844b - .\0A\09.popsection\0A\09", "i,~{dirflag},~{fpsr},~{flags}"(i32 844) #3, !srcloc !9
  tail call void asm sideeffect "845: nop\0A\09.pushsection .discard.instr_end\0A\09.long 845b - .\0A\09.popsection\0A\09", "i,~{dirflag},~{fpsr},~{flags}"(i32 845) #3, !srcloc !10
  br label %dkl_phy_set_hip_idx.exit

dkl_phy_set_hip_idx.exit:                         ; preds = %2, %17
  %19 = add nsw i32 %4, -1474560
  %20 = sdiv i32 %19, 4096
  %21 = icmp ult i32 %4, 1490944
  %22 = select i1 %21, i32 1052832, i32 1052836
  %23 = lshr i32 %1, 24
  %24 = and i32 %23, 15
  %.lhs.trunc.i = trunc i32 %20 to i16
  %25 = srem i16 %.lhs.trunc.i, 4
  %.sext.i = sext i16 %25 to i32
  %26 = shl nsw i32 %.sext.i, 3
  %27 = shl nuw nsw i32 %24, %26
  %28 = getelementptr inbounds i8, ptr %0, i64 7368
  %29 = getelementptr inbounds i8, ptr %0, i64 7544
  %30 = load ptr, ptr %29, align 8
  tail call void %30(ptr noundef %28, i32 %22, i32 noundef %27, i1 noundef zeroext true) #3
  %31 = getelementptr inbounds i8, ptr %0, i64 7512
  %32 = load ptr, ptr %31, align 8
  %33 = tail call i32 %32(ptr noundef %28, i32 %4, i1 noundef zeroext false) #3
  tail call void @_raw_spin_unlock(ptr noundef %3) #3
  ret void
}

; Function Attrs: null_pointer_is_valid
declare dso_local void @_raw_spin_lock(ptr noundef) local_unnamed_addr #2 section ".spinlock.text"

; Function Attrs: null_pointer_is_valid
declare dso_local void @__warn_printk(ptr noundef, ...) local_unnamed_addr #2

; Function Attrs: null_pointer_is_valid
declare dso_local ptr @dev_driver_string(ptr noundef) local_unnamed_addr #2

; Function Attrs: null_pointer_is_valid
declare dso_local void @_raw_spin_unlock(ptr noundef) local_unnamed_addr #2 section ".spinlock.text"


!llvm.module.flags = !{!0, !1, !2, !3, !4}

!0 = !{i32 1, !"wchar_size", i32 2}
!1 = !{i32 8, !"cf-protection-branch", i32 1}
!2 = !{i32 4, !"function_return_thunk_extern", i32 1}
!3 = !{i32 4, !"indirect_branch_cs_prefix", i32 1}
!4 = !{i32 4, !"SkipRaxSetup", i32 1}
!5 = !{!"branch_weights", i32 1, i32 2000}
!6 = !{i64 2159644051, i64 2159643860, i64 2159643912, i64 2159643958, i64 2159643986}
!7 = !{i64 2159644609, i64 2159644418, i64 2159644470, i64 2159644516, i64 2159644544}
!8 = !{i64 2159644683, i64 2159644712, i64 2159644758, i64 2159644816, i64 2159644870, i64 2159644924, i64 2159644979, i64 2159645010, i64 2159645318, i64 2159645324, i64 2159645371, i64 2159645394, i64 2159645420}
!9 = !{i64 2159645896, i64 2159645707, i64 2159645757, i64 2159645803, i64 2159645831}
!10 = !{i64 2159646202, i64 2159646013, i64 2159646063, i64 2159646109, i64 2159646137}
